target datalayout = "e-m:e-p270:32:32-p271:32:32-p272:64:64-i64:64-i128:128-f80:128-n8:16:32:64-S128"
target triple = "x86_64-pc-linux-gnu"

%class.ThreadShadow = type <{ ptr, ptr, ptr, i32, [4 x i8] }>
%class.Handle = type { ptr }

@_ZN10Management13_gcInfo_klassE = hidden global ptr null, align 8
@_ZN6Symbol11_vm_symbolsE = external global [0 x ptr], align 8

; Function Attrs: mustprogress nounwind uwtable
define linkonce_odr hidden noundef ptr @_ZN13InstanceKlass4castEPK5Klass(ptr noundef %0) #1 comdat align 2 {
  %2 = alloca ptr, align 8
  store ptr %0, ptr %2, align 8
  %3 = load ptr, ptr %2, align 8
  ret ptr %3
}

; Function Attrs: mustprogress nounwind uwtable
define linkonce_odr hidden noundef ptr @_ZN13InstanceKlass4castEP5Klass(ptr noundef %0) #1 comdat align 2 {
  %2 = alloca ptr, align 8
  store ptr %0, ptr %2, align 8
  %3 = load ptr, ptr %2, align 8
  %4 = call noundef ptr @_ZN13InstanceKlass4castEPK5Klass(ptr noundef %3)
  ret ptr %4
}

; Function Attrs: mustprogress nounwind uwtable
define linkonce_odr hidden void @_ZN6HandleC2Ev(ptr noundef nonnull align 8 dereferenceable(8) %0) unnamed_addr #1 comdat align 2 {
  %2 = alloca ptr, align 8
  store ptr %0, ptr %2, align 8
  %3 = load ptr, ptr %2, align 8
  %4 = getelementptr inbounds %class.Handle, ptr %3, i32 0, i32 0
  store ptr null, ptr %4, align 8
  ret void
}

; Function Attrs: mustprogress nounwind uwtable
define hidden noundef ptr @_ZN10Management16initialize_klassEP5KlassP10JavaThread(ptr noundef %0, ptr noundef %1) #1 align 2 {
  %3 = alloca ptr, align 8
  %4 = alloca ptr, align 8
  %5 = alloca ptr, align 8
  %6 = alloca ptr, align 8
  store ptr %0, ptr %4, align 8
  store ptr %1, ptr %5, align 8
  %7 = load ptr, ptr %4, align 8
  %8 = call noundef ptr @_ZN13InstanceKlass4castEP5Klass(ptr noundef %7)
  store ptr %8, ptr %6, align 8
  %9 = load ptr, ptr %6, align 8
  %10 = load ptr, ptr %9, align 8
  %11 = getelementptr inbounds ptr, ptr %10, i64 21
  %12 = load ptr, ptr %11, align 8
  %13 = call noundef zeroext i1 %12(ptr noundef nonnull align 8 dereferenceable(464) %9)
  br i1 %13, label %14, label %24

14:                                               ; preds = %2
  %15 = load ptr, ptr %6, align 8
  %16 = load ptr, ptr %5, align 8
  %17 = load ptr, ptr %15, align 8
  %18 = getelementptr inbounds ptr, ptr %17, i64 22
  %19 = load ptr, ptr %18, align 8
  call void %19(ptr noundef nonnull align 8 dereferenceable(464) %15, ptr noundef %16)
  %20 = load ptr, ptr %5, align 8
  %21 = call noundef zeroext i1 @_ZNK12ThreadShadow21has_pending_exceptionEv(ptr noundef nonnull align 8 dereferenceable(28) %20)
  br i1 %21, label %22, label %23

22:                                               ; preds = %14
  store ptr null, ptr %3, align 8
  br label %26

23:                                               ; preds = %14
  br label %24

24:                                               ; preds = %23, %2
  %25 = load ptr, ptr %6, align 8
  store ptr %25, ptr %3, align 8
  br label %26

26:                                               ; preds = %24, %22
  %27 = load ptr, ptr %3, align 8
  ret ptr %27
}

; Function Attrs: mustprogress nounwind uwtable
define linkonce_odr hidden noundef ptr @_ZN16SystemDictionary15resolve_or_failEP6SymbolbP10JavaThread(ptr noundef %0, i1 noundef zeroext %1, ptr noundef %2) #1 comdat align 2 {
  %4 = alloca ptr, align 8
  %5 = alloca i8, align 1
  %6 = alloca ptr, align 8
  %7 = alloca %class.Handle, align 8
  %8 = alloca %class.Handle, align 8
  store ptr %0, ptr %4, align 8
  %9 = zext i1 %1 to i8
  store i8 %9, ptr %5, align 1
  store ptr %2, ptr %6, align 8
  %10 = load ptr, ptr %4, align 8
  call void @_ZN6HandleC2Ev(ptr noundef nonnull align 8 dereferenceable(8) %7)
  call void @_ZN6HandleC2Ev(ptr noundef nonnull align 8 dereferenceable(8) %8)
  %11 = load i8, ptr %5, align 1
  %12 = trunc i8 %11 to i1
  %13 = load ptr, ptr %6, align 8
  %14 = getelementptr inbounds %class.Handle, ptr %7, i32 0, i32 0
  %15 = load ptr, ptr %14, align 8
  %16 = getelementptr inbounds %class.Handle, ptr %8, i32 0, i32 0
  %17 = load ptr, ptr %16, align 8
  %18 = call noundef ptr @_ZN16SystemDictionary15resolve_or_failEP6Symbol6HandleS2_bP10JavaThread(ptr noundef %10, ptr %15, ptr %17, i1 noundef zeroext %12, ptr noundef %13)
  ret ptr %18
}

; Function Attrs: mustprogress nounwind uwtable
define linkonce_odr hidden noundef zeroext i1 @_ZNK12ThreadShadow21has_pending_exceptionEv(ptr noundef nonnull align 8 dereferenceable(28) %0) #1 comdat align 2 {
  %2 = alloca ptr, align 8
  store ptr %0, ptr %2, align 8
  %3 = load ptr, ptr %2, align 8
  %4 = getelementptr inbounds %class.ThreadShadow, ptr %3, i32 0, i32 1
  %5 = load ptr, ptr %4, align 8
  %6 = icmp ne ptr %5, null
  ret i1 %6
}

; Function Attrs: mustprogress nounwind uwtable
define hidden noundef ptr @_ZN10Management25load_and_initialize_klassEP6SymbolP10JavaThread(ptr noundef %0, ptr noundef %1) #1 align 2 {
  %3 = alloca ptr, align 8
  %4 = alloca ptr, align 8
  %5 = alloca ptr, align 8
  %6 = alloca ptr, align 8
  store ptr %0, ptr %4, align 8
  store ptr %1, ptr %5, align 8
  %7 = load ptr, ptr %4, align 8
  %8 = load ptr, ptr %5, align 8
  %9 = call noundef ptr @_ZN16SystemDictionary15resolve_or_failEP6SymbolbP10JavaThread(ptr noundef %7, i1 noundef zeroext true, ptr noundef %8)
  store ptr %9, ptr %6, align 8
  %10 = load ptr, ptr %5, align 8
  %11 = call noundef zeroext i1 @_ZNK12ThreadShadow21has_pending_exceptionEv(ptr noundef nonnull align 8 dereferenceable(28) %10)
  br i1 %11, label %12, label %13

12:                                               ; preds = %2
  store ptr null, ptr %3, align 8
  br label %17

13:                                               ; preds = %2
  %14 = load ptr, ptr %6, align 8
  %15 = load ptr, ptr %5, align 8
  %16 = call noundef ptr @_ZN10Management16initialize_klassEP5KlassP10JavaThread(ptr noundef %14, ptr noundef %15)
  store ptr %16, ptr %3, align 8
  br label %17

17:                                               ; preds = %13, %12
  %18 = load ptr, ptr %3, align 8
  ret ptr %18
}

; Function Attrs: mustprogress nounwind uwtable
define linkonce_odr hidden noundef ptr @_ZN9vmSymbols25com_sun_management_GcInfoEv() #1 comdat align 2 {
  %1 = load ptr, ptr getelementptr inbounds ([0 x ptr], ptr @_ZN6Symbol11_vm_symbolsE, i64 0, i64 1086), align 8
  ret ptr %1
}

; Function Attrs: mustprogress nounwind uwtable
define hidden noundef ptr @_ZN10Management31com_sun_management_GcInfo_klassEP10JavaThread(ptr noundef %0) #1 align 2 {
  %2 = alloca ptr, align 8
  %3 = alloca ptr, align 8
  store ptr %0, ptr %3, align 8
  %4 = load ptr, ptr @_ZN10Management13_gcInfo_klassE, align 8
  %5 = icmp eq ptr %4, null
  br i1 %5, label %6, label %14

6:                                                ; preds = %1
  %7 = call noundef ptr @_ZN9vmSymbols25com_sun_management_GcInfoEv()
  %8 = load ptr, ptr %3, align 8
  %9 = call noundef ptr @_ZN10Management25load_and_initialize_klassEP6SymbolP10JavaThread(ptr noundef %7, ptr noundef %8)
  store ptr %9, ptr @_ZN10Management13_gcInfo_klassE, align 8
  %10 = load ptr, ptr %3, align 8
  %11 = call noundef zeroext i1 @_ZNK12ThreadShadow21has_pending_exceptionEv(ptr noundef nonnull align 8 dereferenceable(28) %10)
  br i1 %11, label %12, label %13

12:                                               ; preds = %6
  store ptr null, ptr %2, align 8
  br label %16

13:                                               ; preds = %6
  br label %14

14:                                               ; preds = %13, %1
  %15 = load ptr, ptr @_ZN10Management13_gcInfo_klassE, align 8
  store ptr %15, ptr %2, align 8
  br label %16

16:                                               ; preds = %14, %12
  %17 = load ptr, ptr %2, align 8
  ret ptr %17
}